; Function Attrs: mustprogress uwtable
define void @_ZN3gmx6Update28update_for_constraint_virialERK10t_inputrecibNS_8ArrayRefIKfEENS4_IKNS_11BasicVectorIfEEEERK7t_stateRKNS_19ArrayRefWithPaddingIS9_EERK14gmx_ekindata_t(ptr nocapture noundef nonnull readonly align 8 dereferenceable(8) %0, ptr nocapture noundef nonnull readonly align 8 dereferenceable(856) %1, i32 noundef %2, i1 noundef zeroext %3, ptr %4, ptr %5, ptr nocapture noundef readonly byval(%"class.gmx::ArrayRef.103") align 8 %6, ptr noundef nonnull align 8 dereferenceable(832) %7, ptr noundef nonnull align 8 dereferenceable(24) %8, ptr noundef nonnull align 8 dereferenceable(212) %9) local_unnamed_addr #0 align 2 {
  %11 = alloca %"class.gmx::ArrayRef.100", align 8
  %12 = alloca i32, align 4
  %13 = alloca i8, align 1
  %14 = alloca float, align 4
  %15 = alloca i32, align 4
  %16 = alloca %"class.gmx::ArrayRef.103", align 8
  %17 = load ptr, ptr %0, align 8
  %18 = ptrtoint ptr %5 to i64
  %19 = ptrtoint ptr %4 to i64
  %20 = sub i64 %18, %19
  %21 = getelementptr inbounds i8, ptr %4, i64 %20
  %22 = load ptr, ptr %6, align 8
  %23 = getelementptr inbounds i8, ptr %6, i64 8
  %24 = load ptr, ptr %23, align 8
  %25 = ptrtoint ptr %24 to i64
  %26 = ptrtoint ptr %22 to i64
  %27 = sub i64 %25, %26
  %28 = getelementptr inbounds i8, ptr %22, i64 %27
  call void @llvm.lifetime.start.p0(i64 16, ptr nonnull %16)
  call void @llvm.lifetime.start.p0(i64 16, ptr nonnull %11)
  call void @llvm.lifetime.start.p0(i64 4, ptr nonnull %12)
  call void @llvm.lifetime.start.p0(i64 1, ptr nonnull %13)
  call void @llvm.lifetime.start.p0(i64 4, ptr nonnull %14)
  call void @llvm.lifetime.start.p0(i64 4, ptr nonnull %15)
  store ptr %22, ptr %16, align 8
  %.sroa.2.0..sroa_idx = getelementptr inbounds i8, ptr %16, i64 8
  store ptr %28, ptr %.sroa.2.0..sroa_idx, align 8
  %29 = tail call i32 @__kmpc_global_thread_num(ptr nonnull @2)
  store ptr %4, ptr %11, align 8
  %30 = getelementptr inbounds i8, ptr %11, i64 8
  store ptr %21, ptr %30, align 8
  store i32 %2, ptr %12, align 4
  %31 = zext i1 %3 to i8
  store i8 %31, ptr %13, align 1
  %32 = getelementptr inbounds i8, ptr %1, i64 88
  %33 = load double, ptr %32, align 8
  %34 = fptrunc double %33 to float
  store float %34, ptr %14, align 4
  %35 = tail call noundef i32 @_Z20gmx_omp_nthreads_get17ModuleMultiThread(i32 noundef 6)
  store i32 %35, ptr %15, align 4
  tail call void @__kmpc_push_num_threads(ptr nonnull @2, i32 %29, i32 %35)
  call void (ptr, i32, ptr, ...) @__kmpc_fork_call(ptr nonnull @2, i32 10, ptr nonnull @_ZN3gmx6Update4Impl28update_for_constraint_virialERK10t_inputrecibNS_8ArrayRefIKfEENS5_IKNS_11BasicVectorIfEEEERK7t_stateRKNS_19ArrayRefWithPaddingISA_EERK14gmx_ekindata_t.omp_outlined, ptr nonnull %15, ptr nonnull %12, ptr nonnull %7, ptr nonnull %17, ptr nonnull %8, ptr nonnull %14, ptr nonnull %13, ptr nonnull %11, ptr nonnull %16, ptr nonnull %9)
  call void @llvm.lifetime.end.p0(i64 16, ptr nonnull %16)
  call void @llvm.lifetime.end.p0(i64 16, ptr nonnull %11)
  call void @llvm.lifetime.end.p0(i64 4, ptr nonnull %12)
  call void @llvm.lifetime.end.p0(i64 1, ptr nonnull %13)
  call void @llvm.lifetime.end.p0(i64 4, ptr nonnull %14)
  call void @llvm.lifetime.end.p0(i64 4, ptr nonnull %15)
  ret void
}